(dp0
S'tagprogress'
p1
(dp2
S'/home/isaac/Downloads/The Black Keys - Brothers [2010-MP3-Cov][Bubanee]'
p3
(lp4
g3
asS'/home/isaac/Downloads/Volcano Choir - Repave 2013 Indie 320kbps CBR MP3 [VX] [P2PDL]'
p5
(lp6
g5
asS'/home/isaac/Downloads/Volcano Choir/Unmap'
p7
(lp8
g7
asS'/home/isaac/Downloads/turn down for what'
p9
(lp10
g9
asS'/home/isaac/Downloads/Eminem -  The Eminem Show'
p11
(lp12
g11
asS'/home/isaac/Downloads/Eminem-Recovery-(Retail)-2010-[NoFS]'
p13
(lp14
g13
asS'/home/isaac/Downloads/Encore Deluxe[2004]'
p15
(lp16
g15
asS'/home/isaac/Downloads/Ed Sheeran - I See Fire  [iTunes Plus AAC M4A]-BFAB [P2PDL]'
p17
(lp18
g17
asS'/home/isaac/Downloads/Halcyon Days (Deluxe Edition)'
p19
(lp20
g19
asS'/home/isaac/Downloads/American Idiot'
p21
(lp22
g21
asS'/home/isaac/Downloads/Smashing Pumpkins, The - 1993 - Siamese Dream/CD'
p23
(lp24
g23
asS'/home/isaac/Downloads/chillstep/Banks - Goddess.mp3'
p25
(lp26
g25
asS"/home/isaac/Downloads/John Brown's Body - Amplify"
p27
(lp28
g27
asS'/home/isaac/Downloads/slim shady'
p29
(lp30
g29
asS'/home/isaac/Downloads/Eminem - The Slim Shady LP'
p31
(lp32
g31
asS'/home/isaac/Downloads/The.Green.Ways.and.Means.CvZn808'
p33
(lp34
g33
asS'/home/isaac/Downloads/channel ORANGE (Explicit Version)'
p35
(lp36
g35
asS'/home/isaac/Downloads/Ed Sheeran (Discography)/Album/2011 - + (Deluxe Version)'
p37
(lp38
g37
asS'/home/isaac/Downloads/chillstep'
p39
(lp40
g39
ass.