(dp0
S'tagprogress'
p1
(dp2
S'/home/isaac/Downloads/The Black Keys - Brothers [2010-MP3-Cov][Bubanee]'
p3
(lp4
g3
asS'/home/isaac/Downloads/turn down for what'
p5
(lp6
g5
asS'/home/isaac/Downloads/Eminem-Recovery-(Retail)-2010-[NoFS]'
p7
(lp8
g7
asS'/home/isaac/Downloads/Encore Deluxe[2004]'
p9
(lp10
g9
asS'/home/isaac/Downloads/Halcyon Days (Deluxe Edition)'
p11
(lp12
g11
asS'/home/isaac/Downloads/Ed Sheeran - I See Fire  [iTunes Plus AAC M4A]-BFAB [P2PDL]'
p13
(lp14
g13
asS'/home/isaac/Downloads/slim shady'
p15
(lp16
g15
asS'/home/isaac/Downloads/Eminem - The Slim Shady LP'
p17
(lp18
g17
asS'/home/isaac/Downloads/Eminem -  The Eminem Show'
p19
(lp20
g19
asS'/home/isaac/Downloads/channel ORANGE (Explicit Version)'
p21
(lp22
g21
asS'/home/isaac/Downloads/Ed Sheeran (Discography)/Album/2011 - + (Deluxe Version)'
p23
(lp24
g23
ass.